target datalayout = "e-m:e-p270:32:32-p271:32:32-p272:64:64-i64:64-i128:128-f80:128-n8:16:32:64-S128"
target triple = "x86_64-pc-linux-gnu"

%struct.FT_FaceRec_ = type { i64, i64, i64, i64, i64, ptr, ptr, i32, ptr, i32, ptr, %struct.FT_Generic_, %struct.FT_BBox_, i16, i16, i16, i16, i16, i16, i16, i16, ptr, ptr, ptr, ptr, ptr, ptr, %struct.FT_ListRec_, %struct.FT_Generic_, ptr, ptr }
%struct.FT_BBox_ = type { i64, i64, i64, i64 }
%struct.FT_ListRec_ = type { ptr, ptr }
%struct.FT_Generic_ = type { ptr, ptr }

; Function Attrs: nounwind uwtable
define internal i32 @sfnt_get_name_index(ptr noundef %0, ptr noundef %1) #0 {
  %3 = alloca i32, align 4
  %4 = alloca ptr, align 8
  %5 = alloca ptr, align 8
  %6 = alloca ptr, align 8
  %7 = alloca i32, align 4
  %8 = alloca i32, align 4
  %9 = alloca ptr, align 8
  %10 = alloca i32, align 4
  store ptr %0, ptr %4, align 8
  store ptr %1, ptr %5, align 8
  %11 = load ptr, ptr %4, align 8
  store ptr %11, ptr %6, align 8
  store i32 -1, ptr %8, align 4
  %12 = load ptr, ptr %4, align 8
  %13 = getelementptr inbounds %struct.FT_FaceRec_, ptr %12, i32 0, i32 4
  %14 = load i64, ptr %13, align 8
  %15 = icmp slt i64 %14, 0
  br i1 %15, label %16, label %17

16:                                               ; preds = %2
  store i32 0, ptr %3, align 4
  br label %55

17:                                               ; preds = %2
  %18 = load ptr, ptr %4, align 8
  %19 = getelementptr inbounds %struct.FT_FaceRec_, ptr %18, i32 0, i32 4
  %20 = load i64, ptr %19, align 8
  %21 = icmp ult i64 %20, 4294967295
  br i1 %21, label %22, label %27

22:                                               ; preds = %17
  %23 = load ptr, ptr %4, align 8
  %24 = getelementptr inbounds %struct.FT_FaceRec_, ptr %23, i32 0, i32 4
  %25 = load i64, ptr %24, align 8
  %26 = trunc i64 %25 to i32
  store i32 %26, ptr %8, align 4
  br label %30

27:                                               ; preds = %17
  br label %28

28:                                               ; preds = %27
  br label %29

29:                                               ; preds = %28
  br label %30

30:                                               ; preds = %29, %22
  br label %31

31:                                               ; preds = %30
  store i32 0, ptr %7, align 4
  br label %32

32:                                               ; preds = %51, %31
  %33 = load i32, ptr %7, align 4
  %34 = load i32, ptr %8, align 4
  %35 = icmp ult i32 %33, %34
  br i1 %35, label %36, label %54

36:                                               ; preds = %32
  %37 = load ptr, ptr %6, align 8
  %38 = load i32, ptr %7, align 4
  %39 = call i32 @tt_face_get_ps_name(ptr noundef %37, i32 noundef %38, ptr noundef %9)
  store i32 %39, ptr %10, align 4
  %40 = load i32, ptr %10, align 4
  %41 = icmp ne i32 %40, 0
  br i1 %41, label %42, label %43

42:                                               ; preds = %36
  br label %51

43:                                               ; preds = %36
  %44 = load ptr, ptr %5, align 8
  %45 = load ptr, ptr %9, align 8
  %46 = call i32 @strcmp(ptr noundef %44, ptr noundef %45) #10
  %47 = icmp ne i32 %46, 0
  br i1 %47, label %50, label %48

48:                                               ; preds = %43
  %49 = load i32, ptr %7, align 4
  store i32 %49, ptr %3, align 4
  br label %55

50:                                               ; preds = %43
  br label %51

51:                                               ; preds = %50, %42
  %52 = load i32, ptr %7, align 4
  %53 = add i32 %52, 1
  store i32 %53, ptr %7, align 4
  br label %32, !llvm.loop !135

54:                                               ; preds = %32
  store i32 0, ptr %3, align 4
  br label %55

55:                                               ; preds = %54, %48, %16
  %56 = load i32, ptr %3, align 4
  ret i32 %56
}