; Function Attrs: nounwind uwtable
define internal noundef i32 @sfnt_get_name_index(ptr noundef %0, ptr nocapture noundef readonly %1) #0 {
  %3 = alloca ptr, align 8
  %4 = getelementptr inbounds i8, ptr %0, i64 32
  %5 = load i64, ptr %4, align 8
  %6 = icmp slt i64 %5, 0
  br i1 %6, label %.loopexit, label %7

7:                                                ; preds = %2
  %spec.select16 = tail call i64 @llvm.umin.i64(i64 %5, i64 4294967295)
  %spec.select = trunc nuw i64 %spec.select16 to i32
  %.not20 = icmp eq i64 %5, 0
  br i1 %.not20, label %.loopexit, label %.lr.ph

.lr.ph:                                           ; preds = %7, %12
  %.01317 = phi i32 [ %13, %12 ], [ 0, %7 ]
  %8 = call i32 @tt_face_get_ps_name(ptr noundef %0, i32 noundef %.01317, ptr noundef nonnull %3)
  %.not = icmp eq i32 %8, 0
  br i1 %.not, label %9, label %12

9:                                                ; preds = %.lr.ph
  %10 = load ptr, ptr %3, align 8
  %11 = tail call i32 @strcmp(ptr noundef nonnull dereferenceable(1) %1, ptr noundef nonnull dereferenceable(1) %10) #29
  %.not15 = icmp eq i32 %11, 0
  br i1 %.not15, label %.loopexit, label %12

12:                                               ; preds = %9, %.lr.ph
  %13 = add nuw i32 %.01317, 1
  %exitcond.not = icmp eq i32 %13, %spec.select
  br i1 %exitcond.not, label %.loopexit, label %.lr.ph, !llvm.loop !152

.loopexit:                                        ; preds = %9, %12, %7, %2
  %.0 = phi i32 [ 0, %2 ], [ 0, %7 ], [ %.01317, %9 ], [ 0, %12 ]
  ret i32 %.0
}